; Function Attrs: mustprogress nounwind uwtable
define hidden void @_ZN27JvmtiClassFileReconstituter8write_u1Eh(ptr nocapture noundef nonnull align 8 dereferenceable(88) %0, i8 noundef zeroext %1) local_unnamed_addr #0 align 2 {
  %3 = getelementptr inbounds i8, ptr %0, i64 72
  %4 = load ptr, ptr %3, align 8
  %5 = getelementptr inbounds i8, ptr %0, i64 64
  %6 = load ptr, ptr %5, align 8
  %7 = ptrtoint ptr %4 to i64
  %8 = ptrtoint ptr %6 to i64
  %9 = sub i64 %7, %8
  %10 = add i64 %9, 1
  %11 = getelementptr inbounds i8, ptr %0, i64 56
  %12 = load i64, ptr %11, align 8
  %.not.i = icmp ult i64 %10, %12
  br i1 %.not.i, label %_ZN27JvmtiClassFileReconstituter17writeable_addressEm.exit, label %13

13:                                               ; preds = %2
  %14 = shl i64 %12, 1
  %15 = add i64 %14, 2
  %16 = and i64 %15, -1024
  %17 = tail call noundef ptr @_Z25resource_reallocate_bytesPcmmN17AllocFailStrategy13AllocFailEnumE(ptr noundef %6, i64 noundef %12, i64 noundef %16, i32 noundef 0) #12
  store ptr %17, ptr %5, align 8
  store i64 %16, ptr %11, align 8
  %18 = getelementptr inbounds i8, ptr %17, i64 %9
  br label %_ZN27JvmtiClassFileReconstituter17writeable_addressEm.exit

_ZN27JvmtiClassFileReconstituter17writeable_addressEm.exit: ; preds = %2, %13
  %19 = phi ptr [ %18, %13 ], [ %4, %2 ]
  %20 = getelementptr inbounds i8, ptr %19, i64 1
  store ptr %20, ptr %3, align 8
  store i8 %1, ptr %19, align 1
  ret void
}